target datalayout = "e-m:e-p270:32:32-p271:32:32-p272:64:64-i64:64-i128:128-f80:128-n8:16:32:64-S128"
target triple = "x86_64-pc-linux-gnu"

@.str = private unnamed_addr constant [130 x i8] c"generated/home/dtcxzyw/WorkSpace/Projects/compilers/llvm-opt-benchmark/bench/lief/bench_build/mbed_src/library/ssl_tls13_client.c\00", align 1
@.str.11 = private unnamed_addr constant [36 x i8] c"mbedtls_ssl_tls13_create_psk_binder\00", align 1
@.str.12 = private unnamed_addr constant [13 x i8] c"write binder\00", align 1

; Function Attrs: inlinehint nounwind uwtable
define internal i32 @mbedtls_md_type_from_psa_alg(i32 noundef %0) #3 {
  %2 = alloca i32, align 4
  store i32 %0, ptr %2, align 4, !tbaa !12
  %3 = load i32, ptr %2, align 4, !tbaa !12
  %4 = and i32 %3, 255
  ret i32 %4
}

; Function Attrs: inlinehint nounwind uwtable
define internal i32 @mbedtls_ssl_chk_buf_ptr(ptr noundef %0, ptr noundef %1, i64 noundef %2) #3 {
  %4 = alloca ptr, align 8
  %5 = alloca ptr, align 8
  %6 = alloca i64, align 8
  store ptr %0, ptr %4, align 8, !tbaa !8
  store ptr %1, ptr %5, align 8, !tbaa !8
  store i64 %2, ptr %6, align 8, !tbaa !14
  %7 = load ptr, ptr %4, align 8, !tbaa !8
  %8 = load ptr, ptr %5, align 8, !tbaa !8
  %9 = icmp ugt ptr %7, %8
  br i1 %9, label %18, label %10

10:                                               ; preds = %3
  %11 = load i64, ptr %6, align 8, !tbaa !14
  %12 = load ptr, ptr %5, align 8, !tbaa !8
  %13 = load ptr, ptr %4, align 8, !tbaa !8
  %14 = ptrtoint ptr %12 to i64
  %15 = ptrtoint ptr %13 to i64
  %16 = sub i64 %14, %15
  %17 = icmp ugt i64 %11, %16
  br label %18

18:                                               ; preds = %10, %3
  %19 = phi i1 [ true, %3 ], [ %17, %10 ]
  %20 = zext i1 %19 to i32
  ret i32 %20
}

; Function Attrs: nounwind uwtable
define internal i32 @ssl_tls13_write_binder(ptr noundef %0, ptr noundef %1, ptr noundef %2, i32 noundef %3, i32 noundef %4, ptr noundef %5, i64 noundef %6, ptr noundef %7) #0 {
  %9 = alloca i32, align 4
  %10 = alloca ptr, align 8
  %11 = alloca ptr, align 8
  %12 = alloca ptr, align 8
  %13 = alloca i32, align 4
  %14 = alloca i32, align 4
  %15 = alloca ptr, align 8
  %16 = alloca i64, align 8
  %17 = alloca ptr, align 8
  %18 = alloca i32, align 4
  %19 = alloca i8, align 1
  %20 = alloca [64 x i8], align 16
  %21 = alloca i64, align 8
  %22 = alloca i32, align 4
  store ptr %0, ptr %10, align 8, !tbaa !3
  store ptr %1, ptr %11, align 8, !tbaa !8
  store ptr %2, ptr %12, align 8, !tbaa !8
  store i32 %3, ptr %13, align 4, !tbaa !12
  store i32 %4, ptr %14, align 4, !tbaa !12
  store ptr %5, ptr %15, align 8, !tbaa !8
  store i64 %6, ptr %16, align 8, !tbaa !14
  store ptr %7, ptr %17, align 8, !tbaa !10
  call void @llvm.lifetime.start.p0(i64 4, ptr %18) #10
  store i32 -110, ptr %18, align 4, !tbaa !12
  call void @llvm.lifetime.start.p0(i64 1, ptr %19) #10
  call void @llvm.lifetime.start.p0(i64 64, ptr %20) #10
  call void @llvm.lifetime.start.p0(i64 8, ptr %21) #10
  store i64 0, ptr %21, align 8, !tbaa !14
  %23 = load ptr, ptr %17, align 8, !tbaa !10
  store i64 0, ptr %23, align 8, !tbaa !14
  %24 = load i32, ptr %14, align 4, !tbaa !12
  %25 = and i32 %24, 255
  %26 = or i32 33554432, %25
  %27 = icmp eq i32 %26, 33554435
  br i1 %27, label %28, label %29

28:                                               ; preds = %8
  br label %123

29:                                               ; preds = %8
  %30 = load i32, ptr %14, align 4, !tbaa !12
  %31 = and i32 %30, 255
  %32 = or i32 33554432, %31
  %33 = icmp eq i32 %32, 33554436
  br i1 %33, label %34, label %35

34:                                               ; preds = %29
  br label %121

35:                                               ; preds = %29
  %36 = load i32, ptr %14, align 4, !tbaa !12
  %37 = and i32 %36, 255
  %38 = or i32 33554432, %37
  %39 = icmp eq i32 %38, 33554437
  br i1 %39, label %40, label %41

40:                                               ; preds = %35
  br label %119

41:                                               ; preds = %35
  %42 = load i32, ptr %14, align 4, !tbaa !12
  %43 = and i32 %42, 255
  %44 = or i32 33554432, %43
  %45 = icmp eq i32 %44, 33554440
  br i1 %45, label %46, label %47

46:                                               ; preds = %41
  br label %117

47:                                               ; preds = %41
  %48 = load i32, ptr %14, align 4, !tbaa !12
  %49 = and i32 %48, 255
  %50 = or i32 33554432, %49
  %51 = icmp eq i32 %50, 33554441
  br i1 %51, label %52, label %53

52:                                               ; preds = %47
  br label %115

53:                                               ; preds = %47
  %54 = load i32, ptr %14, align 4, !tbaa !12
  %55 = and i32 %54, 255
  %56 = or i32 33554432, %55
  %57 = icmp eq i32 %56, 33554442
  br i1 %57, label %58, label %59

58:                                               ; preds = %53
  br label %113

59:                                               ; preds = %53
  %60 = load i32, ptr %14, align 4, !tbaa !12
  %61 = and i32 %60, 255
  %62 = or i32 33554432, %61
  %63 = icmp eq i32 %62, 33554443
  br i1 %63, label %64, label %65

64:                                               ; preds = %59
  br label %111

65:                                               ; preds = %59
  %66 = load i32, ptr %14, align 4, !tbaa !12
  %67 = and i32 %66, 255
  %68 = or i32 33554432, %67
  %69 = icmp eq i32 %68, 33554444
  br i1 %69, label %70, label %71

70:                                               ; preds = %65
  br label %109

71:                                               ; preds = %65
  %72 = load i32, ptr %14, align 4, !tbaa !12
  %73 = and i32 %72, 255
  %74 = or i32 33554432, %73
  %75 = icmp eq i32 %74, 33554445
  br i1 %75, label %76, label %77

76:                                               ; preds = %71
  br label %107

77:                                               ; preds = %71
  %78 = load i32, ptr %14, align 4, !tbaa !12
  %79 = and i32 %78, 255
  %80 = or i32 33554432, %79
  %81 = icmp eq i32 %80, 33554448
  br i1 %81, label %82, label %83

82:                                               ; preds = %77
  br label %105

83:                                               ; preds = %77
  %84 = load i32, ptr %14, align 4, !tbaa !12
  %85 = and i32 %84, 255
  %86 = or i32 33554432, %85
  %87 = icmp eq i32 %86, 33554449
  br i1 %87, label %88, label %89

88:                                               ; preds = %83
  br label %103

89:                                               ; preds = %83
  %90 = load i32, ptr %14, align 4, !tbaa !12
  %91 = and i32 %90, 255
  %92 = or i32 33554432, %91
  %93 = icmp eq i32 %92, 33554450
  br i1 %93, label %94, label %95

94:                                               ; preds = %89
  br label %101

95:                                               ; preds = %89
  %96 = load i32, ptr %14, align 4, !tbaa !12
  %97 = and i32 %96, 255
  %98 = or i32 33554432, %97
  %99 = icmp eq i32 %98, 33554451
  %100 = select i1 %99, i32 64, i32 0
  br label %101

101:                                              ; preds = %95, %94
  %102 = phi i32 [ 48, %94 ], [ %100, %95 ]
  br label %103

103:                                              ; preds = %101, %88
  %104 = phi i32 [ 32, %88 ], [ %102, %101 ]
  br label %105

105:                                              ; preds = %103, %82
  %106 = phi i32 [ 28, %82 ], [ %104, %103 ]
  br label %107

107:                                              ; preds = %105, %76
  %108 = phi i32 [ 32, %76 ], [ %106, %105 ]
  br label %109

109:                                              ; preds = %107, %70
  %110 = phi i32 [ 28, %70 ], [ %108, %107 ]
  br label %111

111:                                              ; preds = %109, %64
  %112 = phi i32 [ 64, %64 ], [ %110, %109 ]
  br label %113

113:                                              ; preds = %111, %58
  %114 = phi i32 [ 48, %58 ], [ %112, %111 ]
  br label %115

115:                                              ; preds = %113, %52
  %116 = phi i32 [ 32, %52 ], [ %114, %113 ]
  br label %117

117:                                              ; preds = %115, %46
  %118 = phi i32 [ 28, %46 ], [ %116, %115 ]
  br label %119

119:                                              ; preds = %117, %40
  %120 = phi i32 [ 20, %40 ], [ %118, %117 ]
  br label %121

121:                                              ; preds = %119, %34
  %122 = phi i32 [ 20, %34 ], [ %120, %119 ]
  br label %123

123:                                              ; preds = %121, %28
  %124 = phi i32 [ 16, %28 ], [ %122, %121 ]
  %125 = trunc i32 %124 to i8
  store i8 %125, ptr %19, align 1, !tbaa !49
  br label %126

126:                                              ; preds = %123
  %127 = load ptr, ptr %11, align 8, !tbaa !8
  %128 = load ptr, ptr %12, align 8, !tbaa !8
  %129 = load i8, ptr %19, align 1, !tbaa !49
  %130 = zext i8 %129 to i32
  %131 = add nsw i32 1, %130
  %132 = sext i32 %131 to i64
  %133 = call i32 @mbedtls_ssl_chk_buf_ptr(ptr noundef %127, ptr noundef %128, i64 noundef %132)
  %134 = icmp ne i32 %133, 0
  br i1 %134, label %135, label %136

135:                                              ; preds = %126
  store i32 -27136, ptr %9, align 4
  store i32 1, ptr %22, align 4
  br label %179

136:                                              ; preds = %126
  br label %137

137:                                              ; preds = %136
  br label %138

138:                                              ; preds = %137
  %139 = load i8, ptr %19, align 1, !tbaa !49
  %140 = load ptr, ptr %11, align 8, !tbaa !8
  %141 = getelementptr inbounds i8, ptr %140, i64 0
  store i8 %139, ptr %141, align 1, !tbaa !49
  %142 = load ptr, ptr %10, align 8, !tbaa !3
  %143 = load i32, ptr %14, align 4, !tbaa !12
  %144 = call i32 @mbedtls_md_type_from_psa_alg(i32 noundef %143)
  %145 = getelementptr inbounds [64 x i8], ptr %20, i64 0, i64 0
  %146 = call i32 @mbedtls_ssl_get_handshake_transcript(ptr noundef %142, i32 noundef %144, ptr noundef %145, i64 noundef 64, ptr noundef %21)
  store i32 %146, ptr %18, align 4, !tbaa !12
  %147 = load i32, ptr %18, align 4, !tbaa !12
  %148 = icmp ne i32 %147, 0
  br i1 %148, label %149, label %151

149:                                              ; preds = %138
  %150 = load i32, ptr %18, align 4, !tbaa !12
  store i32 %150, ptr %9, align 4
  store i32 1, ptr %22, align 4
  br label %179

151:                                              ; preds = %138
  %152 = load ptr, ptr %10, align 8, !tbaa !3
  %153 = load i32, ptr %14, align 4, !tbaa !12
  %154 = load ptr, ptr %15, align 8, !tbaa !8
  %155 = load i64, ptr %16, align 8, !tbaa !14
  %156 = load i32, ptr %13, align 4, !tbaa !12
  %157 = getelementptr inbounds [64 x i8], ptr %20, i64 0, i64 0
  %158 = load ptr, ptr %11, align 8, !tbaa !8
  %159 = getelementptr inbounds i8, ptr %158, i64 1
  %160 = call i32 @mbedtls_ssl_tls13_create_psk_binder(ptr noundef %152, i32 noundef %153, ptr noundef %154, i64 noundef %155, i32 noundef %156, ptr noundef %157, ptr noundef %159)
  store i32 %160, ptr %18, align 4, !tbaa !12
  %161 = load i32, ptr %18, align 4, !tbaa !12
  %162 = icmp ne i32 %161, 0
  br i1 %162, label %163, label %167

163:                                              ; preds = %151
  %164 = load ptr, ptr %10, align 8, !tbaa !3
  %165 = load i32, ptr %18, align 4, !tbaa !12
  call void @mbedtls_debug_print_ret(ptr noundef %164, i32 noundef 1, ptr noundef @.str, i32 noundef 861, ptr noundef @.str.11, i32 noundef %165)
  %166 = load i32, ptr %18, align 4, !tbaa !12
  store i32 %166, ptr %9, align 4
  store i32 1, ptr %22, align 4
  br label %179

167:                                              ; preds = %151
  %168 = load ptr, ptr %10, align 8, !tbaa !3
  %169 = load ptr, ptr %11, align 8, !tbaa !8
  %170 = load i8, ptr %19, align 1, !tbaa !49
  %171 = zext i8 %170 to i32
  %172 = add nsw i32 1, %171
  %173 = sext i32 %172 to i64
  call void @mbedtls_debug_print_buf(ptr noundef %168, i32 noundef 4, ptr noundef @.str, i32 noundef 864, ptr noundef @.str.12, ptr noundef %169, i64 noundef %173)
  %174 = load i8, ptr %19, align 1, !tbaa !49
  %175 = zext i8 %174 to i32
  %176 = add nsw i32 1, %175
  %177 = sext i32 %176 to i64
  %178 = load ptr, ptr %17, align 8, !tbaa !10
  store i64 %177, ptr %178, align 8, !tbaa !14
  store i32 0, ptr %9, align 4
  store i32 1, ptr %22, align 4
  br label %179

179:                                              ; preds = %167, %163, %149, %135
  call void @llvm.lifetime.end.p0(i64 8, ptr %21) #10
  call void @llvm.lifetime.end.p0(i64 64, ptr %20) #10
  call void @llvm.lifetime.end.p0(i64 1, ptr %19) #10
  call void @llvm.lifetime.end.p0(i64 4, ptr %18) #10
  %180 = load i32, ptr %9, align 4
  ret i32 %180
}