; Function Attrs: nounwind uwtable
define internal fastcc i32 @ssl_tls13_write_binder(ptr noundef %0, ptr noundef %1, ptr noundef %2, i32 noundef range(i32 0, 2) %3, i32 noundef %4, ptr noundef %5, i64 noundef %6, ptr noundef nonnull writeonly captures(none) initializes((0, 8)) %7) unnamed_addr #0 {
  %9 = alloca [64 x i8], align 16
  %10 = alloca i64, align 8
  call void @llvm.lifetime.start.p0(i64 64, ptr nonnull %9) #12
  call void @llvm.lifetime.start.p0(i64 8, ptr nonnull %10) #12
  store i64 0, ptr %10, align 8, !tbaa !3
  store i64 0, ptr %7, align 8, !tbaa !3
  %11 = and i32 %4, 255
  %trunc = trunc i32 %4 to i8
  %switch.tableidx = add i8 %trunc, -3
  %12 = icmp ult i8 %switch.tableidx, 16
  br i1 %12, label %switch.hole_check, label %13

13:                                               ; preds = %switch.hole_check, %8
  %14 = icmp eq i32 %11, 19
  %15 = select i1 %14, i8 64, i8 0
  br label %17

switch.hole_check:                                ; preds = %8
  %switch.maskindex = zext nneg i8 %switch.tableidx to i16
  %switch.shifted = lshr i16 -6169, %switch.maskindex
  %switch.lobit = trunc i16 %switch.shifted to i1
  br i1 %switch.lobit, label %switch.lookup, label %13

switch.lookup:                                    ; preds = %switch.hole_check
  %16 = zext nneg i8 %switch.tableidx to i64
  %switch.gep = getelementptr inbounds nuw [16 x i8], ptr @switch.table.ssl_tls13_write_binder, i64 0, i64 %16
  %switch.load = load i8, ptr %switch.gep, align 1
  br label %17

17:                                               ; preds = %switch.lookup, %13
  %18 = phi i8 [ %15, %13 ], [ %switch.load, %switch.lookup ]
  %19 = or disjoint i8 %18, 1
  %20 = zext nneg i8 %19 to i64
  %21 = icmp ule ptr %1, %2
  %22 = ptrtoint ptr %2 to i64
  %23 = ptrtoint ptr %1 to i64
  %24 = sub i64 %22, %23
  %25 = icmp uge i64 %24, %20
  %narrow.i.not = and i1 %21, %25
  br i1 %narrow.i.not, label %26, label %33

26:                                               ; preds = %17
  store i8 %18, ptr %1, align 1, !tbaa !58
  %27 = call i32 @mbedtls_ssl_get_handshake_transcript(ptr noundef %0, i32 noundef %11, ptr noundef nonnull %9, i64 noundef 64, ptr noundef nonnull %10) #12
  %.not41 = icmp eq i32 %27, 0
  br i1 %.not41, label %28, label %33

28:                                               ; preds = %26
  %29 = getelementptr inbounds nuw i8, ptr %1, i64 1
  %30 = call i32 @mbedtls_ssl_tls13_create_psk_binder(ptr noundef %0, i32 noundef %4, ptr noundef %5, i64 noundef %6, i32 noundef %3, ptr noundef nonnull %9, ptr noundef nonnull %29) #12
  %.not42 = icmp eq i32 %30, 0
  br i1 %.not42, label %32, label %31

31:                                               ; preds = %28
  call void @mbedtls_debug_print_ret(ptr noundef %0, i32 noundef 1, ptr noundef nonnull @.str, i32 noundef 861, ptr noundef nonnull @.str.11, i32 noundef %30) #12
  br label %33

32:                                               ; preds = %28
  call void @mbedtls_debug_print_buf(ptr noundef %0, i32 noundef 4, ptr noundef nonnull @.str, i32 noundef 864, ptr noundef nonnull @.str.12, ptr noundef nonnull %1, i64 noundef %20) #12
  store i64 %20, ptr %7, align 8, !tbaa !3
  br label %33

33:                                               ; preds = %26, %17, %32, %31
  %.0 = phi i32 [ %30, %31 ], [ 0, %32 ], [ -27136, %17 ], [ %27, %26 ]
  call void @llvm.lifetime.end.p0(i64 8, ptr nonnull %10) #12
  call void @llvm.lifetime.end.p0(i64 64, ptr nonnull %9) #12
  ret i32 %.0
}